Certificate:
    Data:
        Version: 1 (0x0)
        Serial Number: 1 (0x1)
        Signature Algorithm: md5WithRSAEncryption
        Issuer: C=DK, ST=Midtjylland, L=\xC3\x85rhus, O=Magenta ApS, CN=Suila Dev CA
        Validity
            Not Before: Jan  3 20:22:04 2025 GMT
            Not After : Jan  1 20:22:04 2035 GMT
        Subject: C=DK, ST=Midtjylland, L=\xC3\x85rhus, O=Magenta ApS, CN=Suila Dev Server
        Subject Public Key Info:
            Public Key Algorithm: rsaEncryption
                Public-Key: (1024 bit)
                Modulus:
                    00:cf:45:00:13:64:b6:1d:58:19:53:3a:91:95:5c:
                    b5:4f:57:4e:02:8b:2f:6f:32:ff:07:01:3e:1c:e0:
                    3a:39:de:7f:92:6d:0f:32:27:59:76:5e:f6:7b:f0:
                    ea:68:30:ae:80:77:d1:2c:e5:4d:d1:ea:89:74:47:
                    bf:71:35:79:3a:90:70:1b:9e:ee:03:13:8e:6e:49:
                    35:58:1d:fb:c2:24:32:df:07:63:4a:b0:3a:1e:29:
                    dd:93:09:02:b8:46:12:c8:37:b0:ee:ce:73:0f:47:
                    de:b7:cc:3e:ed:37:e1:e9:3c:5d:0e:3d:df:02:11:
                    01:7a:98:79:56:27:32:98:17
                Exponent: 65537 (0x10001)
    Signature Algorithm: md5WithRSAEncryption
    Signature Value:
        72:5f:2a:5f:25:16:0b:98:a1:4f:78:3f:59:c6:f2:b7:7d:5b:
        de:8a:9d:95:c4:ad:fb:57:0e:82:87:38:08:36:8d:2d:0b:ba:
        22:43:6b:79:4a:15:f4:5e:9f:8e:ce:14:c7:84:59:9a:71:02:
        ff:0e:e2:ce:3b:47:53:ad:d3:12:81:fe:3d:43:62:65:37:ea:
        7b:39:9c:99:98:a4:10:2f:88:c7:84:54:71:22:5d:5c:9f:fe:
        de:d7:c9:a0:06:e3:92:e9:7c:5d:e2:28:ce:e9:ac:3a:75:a4:
        b7:4d:3b:73:6c:a4:1e:21:2c:e0:56:d9:89:42:fe:08:7f:c8:
        b6:f9
-----BEGIN CERTIFICATE-----
MIICNTCCAZ4CAQEwDQYJKoZIhvcNAQEEBQAwYTELMAkGA1UEBhMCREsxFDASBgNV
BAgMC01pZHRqeWxsYW5kMQ8wDQYDVQQHDAbDhXJodXMxFDASBgNVBAoMC01hZ2Vu
dGEgQXBTMRUwEwYDVQQDDAxTdWlsYSBEZXYgQ0EwHhcNMjUwMTAzMjAyMjA0WhcN
MzUwMTAxMjAyMjA0WjBlMQswCQYDVQQGEwJESzEUMBIGA1UECAwLTWlkdGp5bGxh
bmQxDzANBgNVBAcMBsOFcmh1czEUMBIGA1UECgwLTWFnZW50YSBBcFMxGTAXBgNV
BAMMEFN1aWxhIERldiBTZXJ2ZXIwgZ8wDQYJKoZIhvcNAQEBBQADgY0AMIGJAoGB
AM9FABNkth1YGVM6kZVctU9XTgKLL28y/wcBPhzgOjnef5JtDzInWXZe9nvw6mgw
roB30SzlTdHqiXRHv3E1eTqQcBue7gMTjm5JNVgd+8IkMt8HY0qwOh4p3ZMJArhG
Esg3sO7Ocw9H3rfMPu034ek8XQ493wIRAXqYeVYnMpgXAgMBAAEwDQYJKoZIhvcN
AQEEBQADgYEAcl8qXyUWC5ihT3g/Wcbyt31b3oqdlcSt+1cOgoc4CDaNLQu6IkNr
eUoV9F6fjs4Ux4RZmnEC/w7izjtHU63TEoH+PUNiZTfqezmcmZikEC+Ix4RUcSJd
XJ/+3tfJoAbjkul8XeIozumsOnWkt007c2ykHiEs4FbZiUL+CH/Itvk=
-----END CERTIFICATE-----
