Certificate:
    Data:
        Version: 1 (0x0)
        Serial Number: 2 (0x2)
        Signature Algorithm: md5WithRSAEncryption
        Issuer: C=DK, ST=Midtjylland, L=\xC3\x85rhus, O=Magenta ApS, CN=Suila Dev CA
        Validity
            Not Before: Jan  3 20:22:21 2025 GMT
            Not After : Jan  1 20:22:21 2035 GMT
        Subject: C=DK, ST=Midtjylland, L=\xC3\x85rhus, O=Magenta ApS, CN=Suila Dev Client
        Subject Public Key Info:
            Public Key Algorithm: rsaEncryption
                Public-Key: (1024 bit)
                Modulus:
                    00:f2:71:a9:79:20:c9:37:7d:c3:1e:dc:ee:4e:b5:
                    6b:78:bd:59:41:3a:9d:53:91:e3:c6:d4:bf:06:75:
                    a5:1e:84:47:b8:3c:dd:6b:22:5d:ae:5b:3d:77:88:
                    38:07:f3:0d:f2:3c:dc:27:2a:98:a2:61:a0:e2:0f:
                    13:36:ee:af:7a:eb:8d:33:72:8a:9d:c0:5c:78:b0:
                    a8:a5:6b:67:8e:b6:bb:17:36:cd:37:27:3b:eb:26:
                    47:c5:31:28:0f:a8:4d:2e:5e:15:64:4f:3a:a2:3c:
                    b0:8f:ef:10:36:21:be:96:4d:a5:58:9f:34:53:ff:
                    b1:35:17:e8:ac:fa:05:89:c9
                Exponent: 65537 (0x10001)
    Signature Algorithm: md5WithRSAEncryption
    Signature Value:
        4a:a4:db:a8:ee:05:9b:87:2c:f1:43:c3:64:01:fa:a3:5e:b7:
        71:8d:2a:37:2f:73:d9:4b:6f:22:ee:e9:f7:26:c4:d9:3c:ae:
        f9:59:64:1e:21:d2:ff:e7:a1:a3:8e:87:f1:8f:00:f7:e0:31:
        e3:2a:9d:25:ed:d7:9c:6a:03:5f:c7:72:b8:e2:98:a3:02:35:
        ad:e6:fa:cd:9b:91:5b:7e:8d:b6:a3:c6:6c:93:ef:85:f8:70:
        71:d9:62:67:be:d1:10:4b:e1:ba:2b:28:21:b7:05:37:00:0f:
        fe:b6:d8:cc:0f:58:61:d0:30:b7:3b:7b:c3:4a:5d:68:c3:6d:
        f2:fc
-----BEGIN CERTIFICATE-----
MIICNTCCAZ4CAQIwDQYJKoZIhvcNAQEEBQAwYTELMAkGA1UEBhMCREsxFDASBgNV
BAgMC01pZHRqeWxsYW5kMQ8wDQYDVQQHDAbDhXJodXMxFDASBgNVBAoMC01hZ2Vu
dGEgQXBTMRUwEwYDVQQDDAxTdWlsYSBEZXYgQ0EwHhcNMjUwMTAzMjAyMjIxWhcN
MzUwMTAxMjAyMjIxWjBlMQswCQYDVQQGEwJESzEUMBIGA1UECAwLTWlkdGp5bGxh
bmQxDzANBgNVBAcMBsOFcmh1czEUMBIGA1UECgwLTWFnZW50YSBBcFMxGTAXBgNV
BAMMEFN1aWxhIERldiBDbGllbnQwgZ8wDQYJKoZIhvcNAQEBBQADgY0AMIGJAoGB
APJxqXkgyTd9wx7c7k61a3i9WUE6nVOR48bUvwZ1pR6ER7g83WsiXa5bPXeIOAfz
DfI83CcqmKJhoOIPEzbur3rrjTNyip3AXHiwqKVrZ462uxc2zTcnO+smR8UxKA+o
TS5eFWRPOqI8sI/vEDYhvpZNpVifNFP/sTUX6Kz6BYnJAgMBAAEwDQYJKoZIhvcN
AQEEBQADgYEASqTbqO4Fm4cs8UPDZAH6o163cY0qNy9z2UtvIu7p9ybE2Tyu+Vlk
HiHS/+eho46H8Y8A9+Ax4yqdJe3XnGoDX8dyuOKYowI1reb6zZuRW36NtqPGbJPv
hfhwcdliZ77REEvhuisoIbcFNwAP/rbYzA9YYdAwtzt7w0pdaMNt8vw=
-----END CERTIFICATE-----
